target datalayout = "e-m:e-p270:32:32-p271:32:32-p272:64:64-i64:64-i128:128-f80:128-n8:16:32:64-S128"
target triple = "x86_64-pc-linux-gnu"

%struct.SelectiveColorContext = type { ptr, i32, [9 x ptr], [9 x [4 x float]], [9 x %struct.process_range], i32, ptr, [4 x i8], i32, i32 }
%struct.process_range = type { i32, i32, ptr }

@color_names = internal constant [9 x ptr] [ptr @.str.15, ptr @.str.16, ptr @.str.17, ptr @.str.18, ptr @.str.19, ptr @.str.20, ptr @.str.21, ptr @.str.22, ptr @.str.23], align 16
@.str.11 = private unnamed_addr constant [76 x i8] c"Invalid %s adjustments (%g %g %g %g). Settings must be set in [-1;1] range\0A\00", align 1
@.str.12 = private unnamed_addr constant [30 x i8] c"Assertion %s failed at %s:%d\0A\00", align 1
@.str.13 = private unnamed_addr constant [2 x i8] c"0\00", align 1
@.str.14 = private unnamed_addr constant [32 x i8] c"libavfilter/vf_selectivecolor.c\00", align 1

; Function Attrs: nounwind uwtable
define internal i32 @register_range(ptr noundef %0, i32 noundef %1) #0 {
  %3 = alloca i32, align 4
  %4 = alloca ptr, align 8
  %5 = alloca i32, align 4
  %6 = alloca ptr, align 8
  %7 = alloca ptr, align 8
  %8 = alloca i32, align 4
  store ptr %0, ptr %4, align 8, !tbaa !35
  store i32 %1, ptr %5, align 4, !tbaa !37
  call void @llvm.lifetime.start.p0(i64 8, ptr %6) #10
  %9 = load ptr, ptr %4, align 8, !tbaa !35
  %10 = getelementptr inbounds nuw %struct.SelectiveColorContext, ptr %9, i32 0, i32 3
  %11 = load i32, ptr %5, align 4, !tbaa !37
  %12 = sext i32 %11 to i64
  %13 = getelementptr inbounds [9 x [4 x float]], ptr %10, i64 0, i64 %12
  %14 = getelementptr inbounds [4 x float], ptr %13, i64 0, i64 0
  store ptr %14, ptr %6, align 8, !tbaa !55
  %15 = load ptr, ptr %6, align 8, !tbaa !55
  %16 = getelementptr inbounds float, ptr %15, i64 0
  %17 = load float, ptr %16, align 4, !tbaa !64
  %18 = fcmp nsz une float %17, 0.000000e+00
  br i1 %18, label %34, label %19

19:                                               ; preds = %2
  %20 = load ptr, ptr %6, align 8, !tbaa !55
  %21 = getelementptr inbounds float, ptr %20, i64 1
  %22 = load float, ptr %21, align 4, !tbaa !64
  %23 = fcmp nsz une float %22, 0.000000e+00
  br i1 %23, label %34, label %24

24:                                               ; preds = %19
  %25 = load ptr, ptr %6, align 8, !tbaa !55
  %26 = getelementptr inbounds float, ptr %25, i64 2
  %27 = load float, ptr %26, align 4, !tbaa !64
  %28 = fcmp nsz une float %27, 0.000000e+00
  br i1 %28, label %34, label %29

29:                                               ; preds = %24
  %30 = load ptr, ptr %6, align 8, !tbaa !55
  %31 = getelementptr inbounds float, ptr %30, i64 3
  %32 = load float, ptr %31, align 4, !tbaa !64
  %33 = fcmp nsz une float %32, 0.000000e+00
  br i1 %33, label %34, label %236

34:                                               ; preds = %29, %24, %19, %2
  call void @llvm.lifetime.start.p0(i64 8, ptr %7) #10
  %35 = load ptr, ptr %4, align 8, !tbaa !35
  %36 = getelementptr inbounds nuw %struct.SelectiveColorContext, ptr %35, i32 0, i32 4
  %37 = load ptr, ptr %4, align 8, !tbaa !35
  %38 = getelementptr inbounds nuw %struct.SelectiveColorContext, ptr %37, i32 0, i32 5
  %39 = load i32, ptr %38, align 8, !tbaa !59
  %40 = add nsw i32 %39, 1
  store i32 %40, ptr %38, align 8, !tbaa !59
  %41 = sext i32 %39 to i64
  %42 = getelementptr inbounds [9 x %struct.process_range], ptr %36, i64 0, i64 %41
  store ptr %42, ptr %7, align 8, !tbaa !60
  %43 = load ptr, ptr %6, align 8, !tbaa !55
  %44 = getelementptr inbounds float, ptr %43, i64 0
  %45 = load float, ptr %44, align 4, !tbaa !64
  %46 = fpext nsz float %45 to double
  %47 = fcmp nsz olt double %46, -1.000000e+00
  br i1 %47, label %90, label %48

48:                                               ; preds = %34
  %49 = load ptr, ptr %6, align 8, !tbaa !55
  %50 = getelementptr inbounds float, ptr %49, i64 0
  %51 = load float, ptr %50, align 4, !tbaa !64
  %52 = fpext nsz float %51 to double
  %53 = fcmp nsz ogt double %52, 1.000000e+00
  br i1 %53, label %90, label %54

54:                                               ; preds = %48
  %55 = load ptr, ptr %6, align 8, !tbaa !55
  %56 = getelementptr inbounds float, ptr %55, i64 1
  %57 = load float, ptr %56, align 4, !tbaa !64
  %58 = fpext nsz float %57 to double
  %59 = fcmp nsz olt double %58, -1.000000e+00
  br i1 %59, label %90, label %60

60:                                               ; preds = %54
  %61 = load ptr, ptr %6, align 8, !tbaa !55
  %62 = getelementptr inbounds float, ptr %61, i64 1
  %63 = load float, ptr %62, align 4, !tbaa !64
  %64 = fpext nsz float %63 to double
  %65 = fcmp nsz ogt double %64, 1.000000e+00
  br i1 %65, label %90, label %66

66:                                               ; preds = %60
  %67 = load ptr, ptr %6, align 8, !tbaa !55
  %68 = getelementptr inbounds float, ptr %67, i64 2
  %69 = load float, ptr %68, align 4, !tbaa !64
  %70 = fpext nsz float %69 to double
  %71 = fcmp nsz olt double %70, -1.000000e+00
  br i1 %71, label %90, label %72

72:                                               ; preds = %66
  %73 = load ptr, ptr %6, align 8, !tbaa !55
  %74 = getelementptr inbounds float, ptr %73, i64 2
  %75 = load float, ptr %74, align 4, !tbaa !64
  %76 = fpext nsz float %75 to double
  %77 = fcmp nsz ogt double %76, 1.000000e+00
  br i1 %77, label %90, label %78

78:                                               ; preds = %72
  %79 = load ptr, ptr %6, align 8, !tbaa !55
  %80 = getelementptr inbounds float, ptr %79, i64 3
  %81 = load float, ptr %80, align 4, !tbaa !64
  %82 = fpext nsz float %81 to double
  %83 = fcmp nsz olt double %82, -1.000000e+00
  br i1 %83, label %90, label %84

84:                                               ; preds = %78
  %85 = load ptr, ptr %6, align 8, !tbaa !55
  %86 = getelementptr inbounds float, ptr %85, i64 3
  %87 = load float, ptr %86, align 4, !tbaa !64
  %88 = fpext nsz float %87 to double
  %89 = fcmp nsz ogt double %88, 1.000000e+00
  br i1 %89, label %90, label %112

90:                                               ; preds = %84, %78, %72, %66, %60, %54, %48, %34
  %91 = load ptr, ptr %4, align 8, !tbaa !35
  %92 = load i32, ptr %5, align 4, !tbaa !37
  %93 = sext i32 %92 to i64
  %94 = getelementptr inbounds [9 x ptr], ptr @color_names, i64 0, i64 %93
  %95 = load ptr, ptr %94, align 8, !tbaa !54
  %96 = load ptr, ptr %6, align 8, !tbaa !55
  %97 = getelementptr inbounds float, ptr %96, i64 0
  %98 = load float, ptr %97, align 4, !tbaa !64
  %99 = fpext nsz float %98 to double
  %100 = load ptr, ptr %6, align 8, !tbaa !55
  %101 = getelementptr inbounds float, ptr %100, i64 1
  %102 = load float, ptr %101, align 4, !tbaa !64
  %103 = fpext nsz float %102 to double
  %104 = load ptr, ptr %6, align 8, !tbaa !55
  %105 = getelementptr inbounds float, ptr %104, i64 2
  %106 = load float, ptr %105, align 4, !tbaa !64
  %107 = fpext nsz float %106 to double
  %108 = load ptr, ptr %6, align 8, !tbaa !55
  %109 = getelementptr inbounds float, ptr %108, i64 3
  %110 = load float, ptr %109, align 4, !tbaa !64
  %111 = fpext nsz float %110 to double
  call void (ptr, i32, ptr, ...) @av_log(ptr noundef %91, i32 noundef 16, ptr noundef @.str.11, ptr noundef %95, double noundef %99, double noundef %103, double noundef %107, double noundef %111)
  store i32 -22, ptr %3, align 4
  store i32 1, ptr %8, align 4
  br label %233

112:                                              ; preds = %84
  %113 = load i32, ptr %5, align 4, !tbaa !37
  %114 = load ptr, ptr %7, align 8, !tbaa !60
  %115 = getelementptr inbounds nuw %struct.process_range, ptr %114, i32 0, i32 0
  store i32 %113, ptr %115, align 8, !tbaa !62
  %116 = load i32, ptr %5, align 4, !tbaa !37
  %117 = shl i32 1, %116
  %118 = load ptr, ptr %7, align 8, !tbaa !60
  %119 = getelementptr inbounds nuw %struct.process_range, ptr %118, i32 0, i32 1
  store i32 %117, ptr %119, align 4, !tbaa !77
  %120 = load ptr, ptr %7, align 8, !tbaa !60
  %121 = getelementptr inbounds nuw %struct.process_range, ptr %120, i32 0, i32 1
  %122 = load i32, ptr %121, align 4, !tbaa !77
  %123 = and i32 %122, 21
  %124 = icmp ne i32 %123, 0
  br i1 %124, label %125, label %128

125:                                              ; preds = %112
  %126 = load ptr, ptr %7, align 8, !tbaa !60
  %127 = getelementptr inbounds nuw %struct.process_range, ptr %126, i32 0, i32 2
  store ptr @get_rgb_scale, ptr %127, align 8, !tbaa !78
  br label %232

128:                                              ; preds = %112
  %129 = load ptr, ptr %7, align 8, !tbaa !60
  %130 = getelementptr inbounds nuw %struct.process_range, ptr %129, i32 0, i32 1
  %131 = load i32, ptr %130, align 4, !tbaa !77
  %132 = and i32 %131, 42
  %133 = icmp ne i32 %132, 0
  br i1 %133, label %134, label %137

134:                                              ; preds = %128
  %135 = load ptr, ptr %7, align 8, !tbaa !60
  %136 = getelementptr inbounds nuw %struct.process_range, ptr %135, i32 0, i32 2
  store ptr @get_cmy_scale, ptr %136, align 8, !tbaa !78
  br label %231

137:                                              ; preds = %128
  %138 = load ptr, ptr %4, align 8, !tbaa !35
  %139 = getelementptr inbounds nuw %struct.SelectiveColorContext, ptr %138, i32 0, i32 8
  %140 = load i32, ptr %139, align 4, !tbaa !43
  %141 = icmp ne i32 %140, 0
  br i1 %141, label %151, label %142

142:                                              ; preds = %137
  %143 = load ptr, ptr %7, align 8, !tbaa !60
  %144 = getelementptr inbounds nuw %struct.process_range, ptr %143, i32 0, i32 1
  %145 = load i32, ptr %144, align 4, !tbaa !77
  %146 = and i32 %145, 64
  %147 = icmp ne i32 %146, 0
  br i1 %147, label %148, label %151

148:                                              ; preds = %142
  %149 = load ptr, ptr %7, align 8, !tbaa !60
  %150 = getelementptr inbounds nuw %struct.process_range, ptr %149, i32 0, i32 2
  store ptr @get_whites_scale8, ptr %150, align 8, !tbaa !78
  br label %230

151:                                              ; preds = %142, %137
  %152 = load ptr, ptr %4, align 8, !tbaa !35
  %153 = getelementptr inbounds nuw %struct.SelectiveColorContext, ptr %152, i32 0, i32 8
  %154 = load i32, ptr %153, align 4, !tbaa !43
  %155 = icmp ne i32 %154, 0
  br i1 %155, label %165, label %156

156:                                              ; preds = %151
  %157 = load ptr, ptr %7, align 8, !tbaa !60
  %158 = getelementptr inbounds nuw %struct.process_range, ptr %157, i32 0, i32 1
  %159 = load i32, ptr %158, align 4, !tbaa !77
  %160 = and i32 %159, 128
  %161 = icmp ne i32 %160, 0
  br i1 %161, label %162, label %165

162:                                              ; preds = %156
  %163 = load ptr, ptr %7, align 8, !tbaa !60
  %164 = getelementptr inbounds nuw %struct.process_range, ptr %163, i32 0, i32 2
  store ptr @get_neutrals_scale8, ptr %164, align 8, !tbaa !78
  br label %229

165:                                              ; preds = %156, %151
  %166 = load ptr, ptr %4, align 8, !tbaa !35
  %167 = getelementptr inbounds nuw %struct.SelectiveColorContext, ptr %166, i32 0, i32 8
  %168 = load i32, ptr %167, align 4, !tbaa !43
  %169 = icmp ne i32 %168, 0
  br i1 %169, label %179, label %170

170:                                              ; preds = %165
  %171 = load ptr, ptr %7, align 8, !tbaa !60
  %172 = getelementptr inbounds nuw %struct.process_range, ptr %171, i32 0, i32 1
  %173 = load i32, ptr %172, align 4, !tbaa !77
  %174 = and i32 %173, 256
  %175 = icmp ne i32 %174, 0
  br i1 %175, label %176, label %179

176:                                              ; preds = %170
  %177 = load ptr, ptr %7, align 8, !tbaa !60
  %178 = getelementptr inbounds nuw %struct.process_range, ptr %177, i32 0, i32 2
  store ptr @get_blacks_scale8, ptr %178, align 8, !tbaa !78
  br label %228

179:                                              ; preds = %170, %165
  %180 = load ptr, ptr %4, align 8, !tbaa !35
  %181 = getelementptr inbounds nuw %struct.SelectiveColorContext, ptr %180, i32 0, i32 8
  %182 = load i32, ptr %181, align 4, !tbaa !43
  %183 = icmp ne i32 %182, 0
  br i1 %183, label %184, label %193

184:                                              ; preds = %179
  %185 = load ptr, ptr %7, align 8, !tbaa !60
  %186 = getelementptr inbounds nuw %struct.process_range, ptr %185, i32 0, i32 1
  %187 = load i32, ptr %186, align 4, !tbaa !77
  %188 = and i32 %187, 64
  %189 = icmp ne i32 %188, 0
  br i1 %189, label %190, label %193

190:                                              ; preds = %184
  %191 = load ptr, ptr %7, align 8, !tbaa !60
  %192 = getelementptr inbounds nuw %struct.process_range, ptr %191, i32 0, i32 2
  store ptr @get_whites_scale16, ptr %192, align 8, !tbaa !78
  br label %227

193:                                              ; preds = %184, %179
  %194 = load ptr, ptr %4, align 8, !tbaa !35
  %195 = getelementptr inbounds nuw %struct.SelectiveColorContext, ptr %194, i32 0, i32 8
  %196 = load i32, ptr %195, align 4, !tbaa !43
  %197 = icmp ne i32 %196, 0
  br i1 %197, label %198, label %207

198:                                              ; preds = %193
  %199 = load ptr, ptr %7, align 8, !tbaa !60
  %200 = getelementptr inbounds nuw %struct.process_range, ptr %199, i32 0, i32 1
  %201 = load i32, ptr %200, align 4, !tbaa !77
  %202 = and i32 %201, 128
  %203 = icmp ne i32 %202, 0
  br i1 %203, label %204, label %207

204:                                              ; preds = %198
  %205 = load ptr, ptr %7, align 8, !tbaa !60
  %206 = getelementptr inbounds nuw %struct.process_range, ptr %205, i32 0, i32 2
  store ptr @get_neutrals_scale16, ptr %206, align 8, !tbaa !78
  br label %226

207:                                              ; preds = %198, %193
  %208 = load ptr, ptr %4, align 8, !tbaa !35
  %209 = getelementptr inbounds nuw %struct.SelectiveColorContext, ptr %208, i32 0, i32 8
  %210 = load i32, ptr %209, align 4, !tbaa !43
  %211 = icmp ne i32 %210, 0
  br i1 %211, label %212, label %221

212:                                              ; preds = %207
  %213 = load ptr, ptr %7, align 8, !tbaa !60
  %214 = getelementptr inbounds nuw %struct.process_range, ptr %213, i32 0, i32 1
  %215 = load i32, ptr %214, align 4, !tbaa !77
  %216 = and i32 %215, 256
  %217 = icmp ne i32 %216, 0
  br i1 %217, label %218, label %221

218:                                              ; preds = %212
  %219 = load ptr, ptr %7, align 8, !tbaa !60
  %220 = getelementptr inbounds nuw %struct.process_range, ptr %219, i32 0, i32 2
  store ptr @get_blacks_scale16, ptr %220, align 8, !tbaa !78
  br label %225

221:                                              ; preds = %212, %207
  br label %222

222:                                              ; preds = %221
  call void (ptr, i32, ptr, ...) @av_log(ptr noundef null, i32 noundef 0, ptr noundef @.str.12, ptr noundef @.str.13, ptr noundef @.str.14, i32 noundef 179)
  call void @abort() #13
  unreachable

223:                                              ; No predecessors!
  br label %224

224:                                              ; preds = %223
  br label %225

225:                                              ; preds = %224, %218
  br label %226

226:                                              ; preds = %225, %204
  br label %227

227:                                              ; preds = %226, %190
  br label %228

228:                                              ; preds = %227, %176
  br label %229

229:                                              ; preds = %228, %162
  br label %230

230:                                              ; preds = %229, %148
  br label %231

231:                                              ; preds = %230, %134
  br label %232

232:                                              ; preds = %231, %125
  store i32 0, ptr %8, align 4
  br label %233

233:                                              ; preds = %232, %90
  call void @llvm.lifetime.end.p0(i64 8, ptr %7) #10
  %234 = load i32, ptr %8, align 4
  switch i32 %234, label %237 [
    i32 0, label %235
  ]

235:                                              ; preds = %233
  br label %236

236:                                              ; preds = %235, %29
  store i32 0, ptr %3, align 4
  store i32 1, ptr %8, align 4
  br label %237

237:                                              ; preds = %236, %233
  call void @llvm.lifetime.end.p0(i64 8, ptr %6) #10
  %238 = load i32, ptr %3, align 4
  ret i32 %238
}