; Function Attrs: nounwind uwtable
define internal fastcc range(i32 -22, 1) i32 @register_range(ptr noundef %0, i32 noundef %1) unnamed_addr #0 {
  %3 = getelementptr inbounds nuw i8, ptr %0, i64 88
  %4 = sext i32 %1 to i64
  %5 = getelementptr inbounds [9 x [4 x float]], ptr %3, i64 0, i64 %4
  %6 = load float, ptr %5, align 4, !tbaa !54
  %7 = fcmp nsz une float %6, 0.000000e+00
  br i1 %7, label %20, label %8

8:                                                ; preds = %2
  %9 = getelementptr inbounds nuw i8, ptr %5, i64 4
  %10 = load float, ptr %9, align 4, !tbaa !54
  %11 = fcmp nsz une float %10, 0.000000e+00
  br i1 %11, label %20, label %12

12:                                               ; preds = %8
  %13 = getelementptr inbounds nuw i8, ptr %5, i64 8
  %14 = load float, ptr %13, align 4, !tbaa !54
  %15 = fcmp nsz une float %14, 0.000000e+00
  br i1 %15, label %20, label %16

16:                                               ; preds = %12
  %17 = getelementptr inbounds nuw i8, ptr %5, i64 12
  %18 = load float, ptr %17, align 4, !tbaa !54
  %19 = fcmp nsz une float %18, 0.000000e+00
  br i1 %19, label %20, label %83

20:                                               ; preds = %16, %12, %8, %2
  %21 = getelementptr inbounds nuw i8, ptr %0, i64 232
  %22 = getelementptr inbounds nuw i8, ptr %0, i64 376
  %23 = load i32, ptr %22, align 8, !tbaa !59
  %24 = add nsw i32 %23, 1
  store i32 %24, ptr %22, align 8, !tbaa !59
  %25 = sext i32 %23 to i64
  %26 = getelementptr inbounds [9 x %struct.process_range], ptr %21, i64 0, i64 %25
  %27 = tail call nsz float @llvm.fabs.f32(float %6)
  %or.cond = fcmp nsz ogt float %27, 1.000000e+00
  %.phi.trans.insert = getelementptr inbounds nuw i8, ptr %5, i64 4
  %.pre = load float, ptr %.phi.trans.insert, align 4, !tbaa !54
  %28 = tail call nsz float @llvm.fabs.f32(float %.pre)
  %or.cond67 = fcmp nsz ogt float %28, 1.000000e+00
  %or.cond74 = select i1 %or.cond, i1 true, i1 %or.cond67
  br i1 %or.cond74, label %.critedge, label %29

29:                                               ; preds = %20
  %30 = getelementptr inbounds nuw i8, ptr %5, i64 8
  %31 = load float, ptr %30, align 4, !tbaa !54
  %32 = tail call nsz float @llvm.fabs.f32(float %31)
  %or.cond68 = fcmp nsz ogt float %32, 1.000000e+00
  br i1 %or.cond68, label %.critedge, label %33

33:                                               ; preds = %29
  %34 = getelementptr inbounds nuw i8, ptr %5, i64 12
  %35 = load float, ptr %34, align 4, !tbaa !54
  %36 = tail call nsz float @llvm.fabs.f32(float %35)
  %or.cond69 = fcmp nsz ogt float %36, 1.000000e+00
  br i1 %or.cond69, label %.critedge, label %47

.critedge:                                        ; preds = %20, %33, %29
  %37 = getelementptr inbounds [9 x ptr], ptr @color_names, i64 0, i64 %4
  %38 = load ptr, ptr %37, align 8, !tbaa !50
  %39 = fpext nsz float %6 to double
  %40 = fpext nsz float %.pre to double
  %41 = getelementptr inbounds nuw i8, ptr %5, i64 8
  %42 = load float, ptr %41, align 4, !tbaa !54
  %43 = fpext nsz float %42 to double
  %44 = getelementptr inbounds nuw i8, ptr %5, i64 12
  %45 = load float, ptr %44, align 4, !tbaa !54
  %46 = fpext nsz float %45 to double
  tail call void (ptr, i32, ptr, ...) @av_log(ptr noundef nonnull %0, i32 noundef 16, ptr noundef nonnull @.str.11, ptr noundef %38, double noundef %39, double noundef %40, double noundef %43, double noundef %46) #10
  br label %83

47:                                               ; preds = %33
  store i32 %1, ptr %26, align 8, !tbaa !60
  %48 = shl nuw i32 1, %1
  %49 = getelementptr inbounds nuw i8, ptr %26, i64 4
  store i32 %48, ptr %49, align 4, !tbaa !70
  %50 = and i32 %48, 21
  %.not = icmp eq i32 %50, 0
  br i1 %.not, label %53, label %51

51:                                               ; preds = %47
  %52 = getelementptr inbounds nuw i8, ptr %26, i64 8
  store ptr @get_rgb_scale, ptr %52, align 8, !tbaa !71
  br label %83

53:                                               ; preds = %47
  %54 = and i32 %48, 42
  %.not54 = icmp eq i32 %54, 0
  br i1 %.not54, label %57, label %55

55:                                               ; preds = %53
  %56 = getelementptr inbounds nuw i8, ptr %26, i64 8
  store ptr @get_cmy_scale, ptr %56, align 8, !tbaa !71
  br label %83

57:                                               ; preds = %53
  %58 = getelementptr inbounds nuw i8, ptr %0, i64 396
  %59 = load i32, ptr %58, align 4, !tbaa !39
  %.not55 = icmp ne i32 %59, 0
  %60 = and i32 %48, 64
  %.not56 = icmp eq i32 %60, 0
  %or.cond70 = or i1 %.not56, %.not55
  br i1 %or.cond70, label %63, label %61

61:                                               ; preds = %57
  %62 = getelementptr inbounds nuw i8, ptr %26, i64 8
  store ptr @get_whites_scale8, ptr %62, align 8, !tbaa !71
  br label %83

63:                                               ; preds = %57
  %.not57 = icmp eq i32 %59, 0
  br i1 %.not57, label %64, label %72

64:                                               ; preds = %63
  %65 = and i32 %48, 128
  %.not58 = icmp eq i32 %65, 0
  br i1 %.not58, label %68, label %66

66:                                               ; preds = %64
  %67 = getelementptr inbounds nuw i8, ptr %26, i64 8
  store ptr @get_neutrals_scale8, ptr %67, align 8, !tbaa !71
  br label %83

68:                                               ; preds = %64
  %69 = and i32 %48, 256
  %.not60 = icmp eq i32 %69, 0
  br i1 %.not60, label %.thread73, label %70

70:                                               ; preds = %68
  %71 = getelementptr inbounds nuw i8, ptr %26, i64 8
  store ptr @get_blacks_scale8, ptr %71, align 8, !tbaa !71
  br label %83

72:                                               ; preds = %63
  br i1 %.not56, label %75, label %73

73:                                               ; preds = %72
  %74 = getelementptr inbounds nuw i8, ptr %26, i64 8
  store ptr @get_whites_scale16, ptr %74, align 8, !tbaa !71
  br label %83

75:                                               ; preds = %72
  %76 = and i32 %48, 128
  %.not64 = icmp eq i32 %76, 0
  br i1 %.not64, label %79, label %77

77:                                               ; preds = %75
  %78 = getelementptr inbounds nuw i8, ptr %26, i64 8
  store ptr @get_neutrals_scale16, ptr %78, align 8, !tbaa !71
  br label %83

79:                                               ; preds = %75
  %80 = and i32 %48, 256
  %.not66 = icmp eq i32 %80, 0
  br i1 %.not66, label %.thread73, label %81

81:                                               ; preds = %79
  %82 = getelementptr inbounds nuw i8, ptr %26, i64 8
  store ptr @get_blacks_scale16, ptr %82, align 8, !tbaa !71
  br label %83

.thread73:                                        ; preds = %68, %79
  tail call void (ptr, i32, ptr, ...) @av_log(ptr noundef null, i32 noundef 0, ptr noundef nonnull @.str.12, ptr noundef nonnull @.str.13, ptr noundef nonnull @.str.14, i32 noundef 179) #10
  tail call void @abort() #12
  unreachable

83:                                               ; preds = %16, %51, %61, %70, %77, %81, %73, %66, %55, %.critedge
  %.1 = phi i32 [ -22, %.critedge ], [ 0, %55 ], [ 0, %66 ], [ 0, %73 ], [ 0, %81 ], [ 0, %77 ], [ 0, %70 ], [ 0, %61 ], [ 0, %51 ], [ 0, %16 ]
  ret i32 %.1
}